target datalayout = "e-m:e-p270:32:32-p271:32:32-p272:64:64-i64:64-i128:128-f80:128-n8:16:32:64-S128"
target triple = "x86_64-pc-linux-gnu"

; Function Attrs: nounwind sspstrong uwtable
define hidden i64 @rb_struct_lookup(i64 noundef %0, i64 noundef %1) #0 {
  %3 = alloca i64, align 8
  %4 = alloca i64, align 8
  store i64 %0, ptr %3, align 8, !tbaa !7
  store i64 %1, ptr %4, align 8, !tbaa !7
  %5 = load i64, ptr %3, align 8, !tbaa !7
  %6 = load i64, ptr %4, align 8, !tbaa !7
  %7 = call i64 @rb_struct_lookup_default(i64 noundef %5, i64 noundef %6, i64 noundef 4)
  ret i64 %7
}

; Function Attrs: inlinehint nounwind sspstrong uwtable
define internal i32 @rb_check_arity(i32 noundef %0, i32 noundef %1, i32 noundef %2) #1 {
  %4 = alloca i32, align 4
  %5 = alloca i32, align 4
  %6 = alloca i32, align 4
  store i32 %0, ptr %4, align 4, !tbaa !11
  store i32 %1, ptr %5, align 4, !tbaa !11
  store i32 %2, ptr %6, align 4, !tbaa !11
  %7 = load i32, ptr %4, align 4, !tbaa !11
  %8 = load i32, ptr %5, align 4, !tbaa !11
  %9 = icmp slt i32 %7, %8
  br i1 %9, label %17, label %10

10:                                               ; preds = %3
  %11 = load i32, ptr %6, align 4, !tbaa !11
  %12 = icmp ne i32 %11, -1
  br i1 %12, label %13, label %21

13:                                               ; preds = %10
  %14 = load i32, ptr %4, align 4, !tbaa !11
  %15 = load i32, ptr %6, align 4, !tbaa !11
  %16 = icmp sgt i32 %14, %15
  br i1 %16, label %17, label %21

17:                                               ; preds = %13, %3
  %18 = load i32, ptr %4, align 4, !tbaa !11
  %19 = load i32, ptr %5, align 4, !tbaa !11
  %20 = load i32, ptr %6, align 4, !tbaa !11
  call void @rb_error_arity(i32 noundef %18, i32 noundef %19, i32 noundef %20) #29
  unreachable

21:                                               ; preds = %13, %10
  %22 = load i32, ptr %4, align 4, !tbaa !11
  ret i32 %22
}

; Function Attrs: nounwind sspstrong uwtable
define internal i64 @rb_struct_dig(i32 noundef %0, ptr noundef %1, i64 noundef %2) #0 {
  %4 = alloca i64, align 8
  %5 = alloca i32, align 4
  %6 = alloca ptr, align 8
  %7 = alloca i64, align 8
  store i32 %0, ptr %5, align 4, !tbaa !11
  store ptr %1, ptr %6, align 8, !tbaa !28
  store i64 %2, ptr %7, align 8, !tbaa !7
  %8 = load i32, ptr %5, align 4, !tbaa !11
  %9 = call i32 @rb_check_arity(i32 noundef %8, i32 noundef 1, i32 noundef -1)
  %10 = load i64, ptr %7, align 8, !tbaa !7
  %11 = load ptr, ptr %6, align 8, !tbaa !28
  %12 = load i64, ptr %11, align 8, !tbaa !7
  %13 = call i64 @rb_struct_lookup(i64 noundef %10, i64 noundef %12)
  store i64 %13, ptr %7, align 8, !tbaa !7
  %14 = load i32, ptr %5, align 4, !tbaa !11
  %15 = add i32 %14, -1
  store i32 %15, ptr %5, align 4, !tbaa !11
  %16 = icmp ne i32 %15, 0
  br i1 %16, label %19, label %17

17:                                               ; preds = %3
  %18 = load i64, ptr %7, align 8, !tbaa !7
  store i64 %18, ptr %4, align 8
  br label %26

19:                                               ; preds = %3
  %20 = load ptr, ptr %6, align 8, !tbaa !28
  %21 = getelementptr i64, ptr %20, i32 1
  store ptr %21, ptr %6, align 8, !tbaa !28
  %22 = load i32, ptr %5, align 4, !tbaa !11
  %23 = load ptr, ptr %6, align 8, !tbaa !28
  %24 = load i64, ptr %7, align 8, !tbaa !7
  %25 = call i64 @rb_obj_dig(i32 noundef %22, ptr noundef %23, i64 noundef %24, i64 noundef 4)
  store i64 %25, ptr %4, align 8
  br label %26

26:                                               ; preds = %19, %17
  %27 = load i64, ptr %4, align 8
  ret i64 %27
}