; Function Attrs: nounwind sspstrong uwtable
define internal i64 @rb_struct_dig(i32 noundef %0, ptr noundef %1, i64 noundef %2) #0 {
  %4 = icmp slt i32 %0, 1
  br i1 %4, label %5, label %rb_check_arity.exit

5:                                                ; preds = %3
  tail call void @rb_error_arity(i32 noundef %0, i32 noundef 1, i32 noundef -1) #21
  unreachable

rb_check_arity.exit:                              ; preds = %3
  %6 = load i64, ptr %1, align 8, !tbaa !7
  %7 = tail call fastcc i64 @rb_struct_lookup_default(i64 noundef %2, i64 noundef %6)
  %8 = add nsw i32 %0, -1
  %.not = icmp eq i32 %8, 0
  br i1 %.not, label %12, label %9

9:                                                ; preds = %rb_check_arity.exit
  %10 = getelementptr i8, ptr %1, i64 8
  %11 = tail call i64 @rb_obj_dig(i32 noundef %8, ptr noundef %10, i64 noundef %7, i64 noundef 4) #19
  br label %12

12:                                               ; preds = %rb_check_arity.exit, %9
  %.0 = phi i64 [ %11, %9 ], [ %7, %rb_check_arity.exit ]
  ret i64 %.0
}